; Function Attrs: nounwind uwtable
define dso_local range(i32 -1, 1) i32 @PyDict_Watch(i32 noundef %0, ptr noundef captures(none) %1) local_unnamed_addr #0 {
  %3 = getelementptr i8, ptr %1, i64 8
  %.val = load ptr, ptr %3, align 8, !tbaa !25
  %4 = getelementptr i8, ptr %.val, i64 168
  %.val6 = load i64, ptr %4, align 8, !tbaa !28
  %5 = and i64 %.val6, 536870912
  %.not = icmp eq i64 %5, 0
  br i1 %.not, label %6, label %8

6:                                                ; preds = %2
  %7 = load ptr, ptr @PyExc_ValueError, align 8, !tbaa !64
  tail call void @PyErr_SetString(ptr noundef %7, ptr noundef nonnull @.str.41) #23
  br label %25

8:                                                ; preds = %2
  %or.cond.i = icmp ugt i32 %0, 7
  br i1 %or.cond.i, label %validate_watcher_id.exit, label %9

9:                                                ; preds = %8
  %10 = tail call align 8 ptr @llvm.threadlocal.address.p0(ptr align 8 @_Py_tss_tstate)
  %11 = load ptr, ptr %10, align 8, !tbaa !4
  %12 = getelementptr inbounds nuw i8, ptr %11, i64 16
  %13 = load ptr, ptr %12, align 8, !tbaa !9
  %14 = getelementptr inbounds nuw i8, ptr %13, i64 79672
  %15 = zext nneg i32 %0 to i64
  %16 = getelementptr [8 x ptr], ptr %14, i64 0, i64 %15
  %17 = load ptr, ptr %16, align 8, !tbaa !67
  %.not.i = icmp eq ptr %17, null
  br i1 %.not.i, label %validate_watcher_id.exit, label %20

validate_watcher_id.exit:                         ; preds = %8, %9
  %.str.86.sink.i = phi ptr [ @.str.85, %8 ], [ @.str.86, %9 ]
  %18 = load ptr, ptr @PyExc_ValueError, align 8, !tbaa !64
  %19 = tail call ptr (ptr, ptr, ...) @PyErr_Format(ptr noundef %18, ptr noundef nonnull %.str.86.sink.i, i32 noundef %0) #23
  br label %25

20:                                               ; preds = %9
  %21 = shl nuw nsw i64 1, %15
  %22 = getelementptr inbounds nuw i8, ptr %1, i64 24
  %23 = load i64, ptr %22, align 8, !tbaa !138
  %24 = or i64 %23, %21
  store i64 %24, ptr %22, align 8, !tbaa !138
  br label %25

25:                                               ; preds = %validate_watcher_id.exit, %20, %6
  %.0 = phi i32 [ -1, %6 ], [ 0, %20 ], [ -1, %validate_watcher_id.exit ]
  ret i32 %.0
}